; Function Attrs: mustprogress nofree norecurse nosync nounwind willreturn memory(argmem: readwrite) uwtable
define void @av_frame_move_ref(ptr noundef initializes((0, 416)) %0, ptr noundef %1) local_unnamed_addr #5 {
  tail call void @llvm.memcpy.p0.p0.i64(ptr noundef nonnull align 8 dereferenceable(416) %0, ptr noundef nonnull align 8 dereferenceable(416) %1, i64 416, i1 false), !tbaa.struct !89
  %3 = getelementptr inbounds nuw i8, ptr %1, i64 96
  %4 = load ptr, ptr %3, align 8, !tbaa !24
  %5 = icmp eq ptr %4, %1
  br i1 %5, label %6, label %8

6:                                                ; preds = %2
  %7 = getelementptr inbounds nuw i8, ptr %0, i64 96
  store ptr %0, ptr %7, align 8, !tbaa !24
  br label %8

8:                                                ; preds = %6, %2
  tail call void @llvm.memset.p0.i64(ptr noundef nonnull align 8 dereferenceable(416) %1, i8 0, i64 408, i1 false)
  %9 = getelementptr inbounds nuw i8, ptr %1, i64 144
  store i64 -9223372036854775808, ptr %9, align 8, !tbaa !4
  %10 = getelementptr inbounds nuw i8, ptr %1, i64 136
  store i64 -9223372036854775808, ptr %10, align 8, !tbaa !19
  %11 = getelementptr inbounds nuw i8, ptr %1, i64 304
  store i64 -9223372036854775808, ptr %11, align 8, !tbaa !20
  %12 = getelementptr inbounds nuw i8, ptr %1, i64 408
  store i64 0, ptr %12, align 8, !tbaa !21
  %.sroa.22.0..sroa_idx.i = getelementptr inbounds nuw i8, ptr %1, i64 156
  store i32 1, ptr %.sroa.22.0..sroa_idx.i, align 4, !tbaa !22
  %.sroa.2.0..sroa_idx.i = getelementptr inbounds nuw i8, ptr %1, i64 128
  store i32 1, ptr %.sroa.2.0..sroa_idx.i, align 4, !tbaa !22
  %13 = getelementptr inbounds nuw i8, ptr %1, i64 116
  store i32 -1, ptr %13, align 4, !tbaa !23
  store ptr %1, ptr %3, align 8, !tbaa !24
  %14 = getelementptr inbounds nuw i8, ptr %1, i64 284
  store i32 2, ptr %14, align 4, !tbaa !25
  %15 = getelementptr inbounds nuw i8, ptr %1, i64 288
  store i32 2, ptr %15, align 8, !tbaa !26
  %16 = getelementptr inbounds nuw i8, ptr %1, i64 292
  store i32 2, ptr %16, align 4, !tbaa !27
  ret void
}